target datalayout = "e-m:e-p270:32:32-p271:32:32-p272:64:64-i64:64-i128:128-f80:128-n8:16:32:64-S128"
target triple = "x86_64-pc-linux-gnu"

%struct.ssl_st = type { i32, ptr, ptr, ptr, %struct.CRYPTO_REF_COUNT, ptr, %struct.crypto_ex_data_st }
%struct.CRYPTO_REF_COUNT = type { i32 }
%struct.crypto_ex_data_st = type { ptr, ptr }
%struct.ssl_connection_st = type { %struct.ssl_st, ptr, i32, ptr, ptr, ptr, i32, ptr, i32, i32, i32, i32, %struct.OSSL_TIME, %struct.OSSL_TIME, %struct.ossl_statem_st, i32, ptr, ptr, i64, i64, i64, %struct.ossl_quic_tls_callbacks_st, ptr, ptr, %struct.anon, ptr, ptr, ptr, i32, ptr, %struct.ssl_dane_st, ptr, ptr, ptr, ptr, i32, [64 x i8], [64 x i8], [64 x i8], [64 x i8], [64 x i8], [64 x i8], [64 x i8], [64 x i8], [64 x i8], [64 x i8], [64 x i8], [64 x i8], ptr, [64 x i8], i64, i32, i64, [32 x i8], ptr, ptr, ptr, i64, ptr, [32 x i8], i64, i32, ptr, ptr, i32, i32, ptr, ptr, ptr, ptr, ptr, i64, ptr, ptr, i64, i32, i32, i32, i64, i32, i32, i64, i64, i64, %struct.anon.1, ptr, i32, ptr, ptr, ptr, i32, ptr, ptr, ptr, i32, i32, i32, i32, ptr, i64, i32, ptr, %struct.srp_ctx_st, ptr, %struct.record_layer_st, ptr, ptr, ptr, ptr, i64, i32, i32, i32, i64, i64, i64, ptr, ptr, ptr, ptr, ptr, i64, ptr, i64, ptr, i64 }
%struct.OSSL_TIME = type { i64 }
%struct.ossl_statem_st = type { i32, i32, i32, i32, i32, i32, i32, i32, i32, i32, i32, i32, i32, ptr, ptr, ptr, i8 }
%struct.ossl_quic_tls_callbacks_st = type { ptr, ptr, ptr, ptr, ptr, ptr }
%struct.anon = type { i64, [32 x i8], [32 x i8], ptr, ptr, i32, i32, i32, i32, [2 x i8], i32, i32, i32, i32, %struct.anon.0, [64 x i8], i64, [64 x i8], i64, i32, i32, ptr, i64, ptr, i64, i32, i8, i8, i16, ptr, i16 }
%struct.anon.0 = type { [128 x i8], i64, [128 x i8], i64, i64, i32, ptr, ptr, [4 x ptr], [4 x i16], i64, i32, ptr, i64, ptr, i64, ptr, ptr, ptr, i32, i64, ptr, i32, ptr, i64, ptr, i64, ptr, i64, ptr, ptr, ptr, ptr, i64, i64, ptr, ptr, i32, i32, i32, i32 }
%struct.ssl_dane_st = type { ptr, ptr, ptr, ptr, ptr, i32, i32, i32, i64 }
%struct.anon.1 = type { [29 x i8], ptr, ptr, ptr, i32, ptr, i16, i32, %struct.anon.2, i32, i32, i64, ptr, i64, ptr, i64, ptr, i64, ptr, i64, ptr, i64, ptr, ptr, ptr, ptr, ptr, ptr, ptr, i64, ptr, i64, i32, i32, i32, i32, ptr, i64, i32, i8, i32, [4 x i32], i32, i8, i8, i8, i8 }
%struct.anon.2 = type { ptr, ptr, ptr, i64 }
%struct.srp_ctx_st = type { ptr, ptr, ptr, ptr, ptr, ptr, ptr, ptr, ptr, ptr, ptr, ptr, ptr, ptr, i32, i64 }
%struct.record_layer_st = type { ptr, ptr, ptr, ptr, ptr, ptr, ptr, ptr, i64, i32, i64, [4 x i8], i64, i64, i8, ptr, i32, ptr, ptr, ptr, i64, i64, i64, i64, [32 x %struct.tls_record_st] }
%struct.tls_record_st = type { ptr, i32, i8, ptr, ptr, i64, i64, i16, [8 x i8] }
%struct.ssl_method_st = type { i32, i32, i64, ptr, ptr, ptr, ptr, ptr, ptr, ptr, ptr, ptr, ptr, ptr, ptr, ptr, ptr, ptr, ptr, ptr, ptr, ptr, ptr, ptr, ptr, ptr, ptr, ptr, ptr, ptr, ptr, ptr }
%struct.ssl3_enc_method = type { ptr, ptr, ptr, ptr, ptr, i64, ptr, i64, ptr, ptr, i32, ptr, ptr, ptr }
%struct.ssl_trace_tbl = type { i32, ptr }

@.str.12 = private unnamed_addr constant [2 x i8] c"\0A\00", align 1
@.str.13 = private unnamed_addr constant [14 x i8] c"%s (len=%d): \00", align 1
@.str.14 = private unnamed_addr constant [5 x i8] c"%02X\00", align 1
@.str.15 = private unnamed_addr constant [8 x i8] c"UNKNOWN\00", align 1
@.str.516 = private unnamed_addr constant [34 x i8] c"Signature Algorithm: %s (0x%04x)\0A\00", align 1
@.str.517 = private unnamed_addr constant [10 x i8] c"Signature\00", align 1

; Function Attrs: nounwind uwtable
define internal void @ssl_print_hex(ptr noundef %0, i32 noundef %1, ptr noundef %2, ptr noundef %3, i64 noundef %4) #0 {
  %6 = alloca ptr, align 8
  %7 = alloca i32, align 4
  %8 = alloca ptr, align 8
  %9 = alloca ptr, align 8
  %10 = alloca i64, align 8
  %11 = alloca i64, align 8
  store ptr %0, ptr %6, align 8, !tbaa !15
  store i32 %1, ptr %7, align 4, !tbaa !3
  store ptr %2, ptr %8, align 8, !tbaa !13
  store ptr %3, ptr %9, align 8, !tbaa !13
  store i64 %4, ptr %10, align 8, !tbaa !9
  call void @llvm.lifetime.start.p0(i64 8, ptr %11) #3
  %12 = load ptr, ptr %6, align 8, !tbaa !15
  %13 = load i32, ptr %7, align 4, !tbaa !3
  %14 = call i32 @BIO_indent(ptr noundef %12, i32 noundef %13, i32 noundef 80)
  %15 = load ptr, ptr %6, align 8, !tbaa !15
  %16 = load ptr, ptr %8, align 8, !tbaa !13
  %17 = load i64, ptr %10, align 8, !tbaa !9
  %18 = trunc i64 %17 to i32
  %19 = call i32 (ptr, ptr, ...) @BIO_printf(ptr noundef %15, ptr noundef @.str.13, ptr noundef %16, i32 noundef %18)
  store i64 0, ptr %11, align 8, !tbaa !9
  br label %20

20:                                               ; preds = %32, %5
  %21 = load i64, ptr %11, align 8, !tbaa !9
  %22 = load i64, ptr %10, align 8, !tbaa !9
  %23 = icmp ult i64 %21, %22
  br i1 %23, label %24, label %35

24:                                               ; preds = %20
  %25 = load ptr, ptr %6, align 8, !tbaa !15
  %26 = load ptr, ptr %9, align 8, !tbaa !13
  %27 = load i64, ptr %11, align 8, !tbaa !9
  %28 = getelementptr inbounds nuw i8, ptr %26, i64 %27
  %29 = load i8, ptr %28, align 1, !tbaa !84
  %30 = zext i8 %29 to i32
  %31 = call i32 (ptr, ptr, ...) @BIO_printf(ptr noundef %25, ptr noundef @.str.14, i32 noundef %30)
  br label %32

32:                                               ; preds = %24
  %33 = load i64, ptr %11, align 8, !tbaa !9
  %34 = add i64 %33, 1
  store i64 %34, ptr %11, align 8, !tbaa !9
  br label %20, !llvm.loop !86

35:                                               ; preds = %20
  %36 = load ptr, ptr %6, align 8, !tbaa !15
  %37 = call i32 @BIO_puts(ptr noundef %36, ptr noundef @.str.12)
  call void @llvm.lifetime.end.p0(i64 8, ptr %11) #3
  ret void
}

; Function Attrs: nounwind uwtable
define internal i32 @ssl_print_hexbuf(ptr noundef %0, i32 noundef %1, ptr noundef %2, i64 noundef %3, ptr noundef %4, ptr noundef %5) #0 {
  %7 = alloca i32, align 4
  %8 = alloca ptr, align 8
  %9 = alloca i32, align 4
  %10 = alloca ptr, align 8
  %11 = alloca i64, align 8
  %12 = alloca ptr, align 8
  %13 = alloca ptr, align 8
  %14 = alloca i64, align 8
  %15 = alloca ptr, align 8
  %16 = alloca i32, align 4
  store ptr %0, ptr %8, align 8, !tbaa !15
  store i32 %1, ptr %9, align 4, !tbaa !3
  store ptr %2, ptr %10, align 8, !tbaa !13
  store i64 %3, ptr %11, align 8, !tbaa !9
  store ptr %4, ptr %12, align 8, !tbaa !98
  store ptr %5, ptr %13, align 8, !tbaa !100
  call void @llvm.lifetime.start.p0(i64 8, ptr %14) #3
  call void @llvm.lifetime.start.p0(i64 8, ptr %15) #3
  %17 = load ptr, ptr %12, align 8, !tbaa !98
  %18 = load ptr, ptr %17, align 8, !tbaa !13
  store ptr %18, ptr %15, align 8, !tbaa !13
  %19 = load ptr, ptr %13, align 8, !tbaa !100
  %20 = load i64, ptr %19, align 8, !tbaa !9
  %21 = load i64, ptr %11, align 8, !tbaa !9
  %22 = icmp ult i64 %20, %21
  br i1 %22, label %23, label %24

23:                                               ; preds = %6
  store i32 0, ptr %7, align 4
  store i32 1, ptr %16, align 4
  br label %68

24:                                               ; preds = %6
  %25 = load ptr, ptr %15, align 8, !tbaa !13
  %26 = getelementptr inbounds i8, ptr %25, i64 0
  %27 = load i8, ptr %26, align 1, !tbaa !84
  %28 = zext i8 %27 to i64
  store i64 %28, ptr %14, align 8, !tbaa !9
  %29 = load i64, ptr %11, align 8, !tbaa !9
  %30 = icmp ugt i64 %29, 1
  br i1 %30, label %31, label %39

31:                                               ; preds = %24
  %32 = load i64, ptr %14, align 8, !tbaa !9
  %33 = shl i64 %32, 8
  %34 = load ptr, ptr %15, align 8, !tbaa !13
  %35 = getelementptr inbounds i8, ptr %34, i64 1
  %36 = load i8, ptr %35, align 1, !tbaa !84
  %37 = zext i8 %36 to i64
  %38 = or i64 %33, %37
  store i64 %38, ptr %14, align 8, !tbaa !9
  br label %39

39:                                               ; preds = %31, %24
  %40 = load ptr, ptr %13, align 8, !tbaa !100
  %41 = load i64, ptr %40, align 8, !tbaa !9
  %42 = load i64, ptr %11, align 8, !tbaa !9
  %43 = load i64, ptr %14, align 8, !tbaa !9
  %44 = add i64 %42, %43
  %45 = icmp ult i64 %41, %44
  br i1 %45, label %46, label %47

46:                                               ; preds = %39
  store i32 0, ptr %7, align 4
  store i32 1, ptr %16, align 4
  br label %68

47:                                               ; preds = %39
  %48 = load i64, ptr %11, align 8, !tbaa !9
  %49 = load ptr, ptr %15, align 8, !tbaa !13
  %50 = getelementptr inbounds nuw i8, ptr %49, i64 %48
  store ptr %50, ptr %15, align 8, !tbaa !13
  %51 = load ptr, ptr %8, align 8, !tbaa !15
  %52 = load i32, ptr %9, align 4, !tbaa !3
  %53 = load ptr, ptr %10, align 8, !tbaa !13
  %54 = load ptr, ptr %15, align 8, !tbaa !13
  %55 = load i64, ptr %14, align 8, !tbaa !9
  call void @ssl_print_hex(ptr noundef %51, i32 noundef %52, ptr noundef %53, ptr noundef %54, i64 noundef %55)
  %56 = load i64, ptr %14, align 8, !tbaa !9
  %57 = load i64, ptr %11, align 8, !tbaa !9
  %58 = add i64 %56, %57
  %59 = load ptr, ptr %12, align 8, !tbaa !98
  %60 = load ptr, ptr %59, align 8, !tbaa !13
  %61 = getelementptr inbounds nuw i8, ptr %60, i64 %58
  store ptr %61, ptr %59, align 8, !tbaa !13
  %62 = load i64, ptr %14, align 8, !tbaa !9
  %63 = load i64, ptr %11, align 8, !tbaa !9
  %64 = add i64 %62, %63
  %65 = load ptr, ptr %13, align 8, !tbaa !100
  %66 = load i64, ptr %65, align 8, !tbaa !9
  %67 = sub i64 %66, %64
  store i64 %67, ptr %65, align 8, !tbaa !9
  store i32 1, ptr %7, align 4
  store i32 1, ptr %16, align 4
  br label %68

68:                                               ; preds = %47, %46, %23
  call void @llvm.lifetime.end.p0(i64 8, ptr %15) #3
  call void @llvm.lifetime.end.p0(i64 8, ptr %14) #3
  %69 = load i32, ptr %7, align 4
  ret i32 %69
}

; Function Attrs: nounwind uwtable
define internal ptr @do_ssl_trace_str(i32 noundef %0, ptr noundef %1, i64 noundef %2) #0 {
  %4 = alloca ptr, align 8
  %5 = alloca i32, align 4
  %6 = alloca ptr, align 8
  %7 = alloca i64, align 8
  %8 = alloca i64, align 8
  %9 = alloca i32, align 4
  store i32 %0, ptr %5, align 4, !tbaa !3
  store ptr %1, ptr %6, align 8, !tbaa !7
  store i64 %2, ptr %7, align 8, !tbaa !9
  call void @llvm.lifetime.start.p0(i64 8, ptr %8) #3
  store i64 0, ptr %8, align 8, !tbaa !9
  br label %10

10:                                               ; preds = %25, %3
  %11 = load i64, ptr %8, align 8, !tbaa !9
  %12 = load i64, ptr %7, align 8, !tbaa !9
  %13 = icmp ult i64 %11, %12
  br i1 %13, label %14, label %30

14:                                               ; preds = %10
  %15 = load ptr, ptr %6, align 8, !tbaa !7
  %16 = getelementptr inbounds nuw %struct.ssl_trace_tbl, ptr %15, i32 0, i32 0
  %17 = load i32, ptr %16, align 8, !tbaa !88
  %18 = load i32, ptr %5, align 4, !tbaa !3
  %19 = icmp eq i32 %17, %18
  br i1 %19, label %20, label %24

20:                                               ; preds = %14
  %21 = load ptr, ptr %6, align 8, !tbaa !7
  %22 = getelementptr inbounds nuw %struct.ssl_trace_tbl, ptr %21, i32 0, i32 1
  %23 = load ptr, ptr %22, align 8, !tbaa !90
  store ptr %23, ptr %4, align 8
  store i32 1, ptr %9, align 4
  br label %31

24:                                               ; preds = %14
  br label %25

25:                                               ; preds = %24
  %26 = load i64, ptr %8, align 8, !tbaa !9
  %27 = add i64 %26, 1
  store i64 %27, ptr %8, align 8, !tbaa !9
  %28 = load ptr, ptr %6, align 8, !tbaa !7
  %29 = getelementptr inbounds nuw %struct.ssl_trace_tbl, ptr %28, i32 1
  store ptr %29, ptr %6, align 8, !tbaa !7
  br label %10, !llvm.loop !91

30:                                               ; preds = %10
  store ptr @.str.15, ptr %4, align 8
  store i32 1, ptr %9, align 4
  br label %31

31:                                               ; preds = %30, %20
  call void @llvm.lifetime.end.p0(i64 8, ptr %8) #3
  %32 = load ptr, ptr %4, align 8
  ret ptr %32
}

; Function Attrs: nounwind uwtable
define internal i32 @ssl_print_signature(ptr noundef %0, i32 noundef %1, ptr noundef %2, ptr noundef %3, ptr noundef %4) #0 {
  %6 = alloca i32, align 4
  %7 = alloca ptr, align 8
  %8 = alloca i32, align 4
  %9 = alloca ptr, align 8
  %10 = alloca ptr, align 8
  %11 = alloca ptr, align 8
  %12 = alloca ptr, align 8
  %13 = alloca i32, align 4
  store ptr %0, ptr %7, align 8, !tbaa !15
  store i32 %1, ptr %8, align 4, !tbaa !3
  store ptr %2, ptr %9, align 8, !tbaa !25
  store ptr %3, ptr %10, align 8, !tbaa !98
  store ptr %4, ptr %11, align 8, !tbaa !100
  %14 = load ptr, ptr %11, align 8, !tbaa !100
  %15 = load i64, ptr %14, align 8, !tbaa !9
  %16 = icmp ult i64 %15, 2
  br i1 %16, label %17, label %18

17:                                               ; preds = %5
  store i32 0, ptr %6, align 4
  br label %62

18:                                               ; preds = %5
  %19 = load ptr, ptr %9, align 8, !tbaa !25
  %20 = getelementptr inbounds nuw %struct.ssl_connection_st, ptr %19, i32 0, i32 0
  %21 = getelementptr inbounds nuw %struct.ssl_st, ptr %20, i32 0, i32 3
  %22 = load ptr, ptr %21, align 8, !tbaa !29
  %23 = getelementptr inbounds nuw %struct.ssl_method_st, ptr %22, i32 0, i32 28
  %24 = load ptr, ptr %23, align 8, !tbaa !79
  %25 = getelementptr inbounds nuw %struct.ssl3_enc_method, ptr %24, i32 0, i32 10
  %26 = load i32, ptr %25, align 8, !tbaa !82
  %27 = and i32 %26, 2
  %28 = icmp ne i32 %27, 0
  br i1 %28, label %29, label %56

29:                                               ; preds = %18
  call void @llvm.lifetime.start.p0(i64 8, ptr %12) #3
  %30 = load ptr, ptr %10, align 8, !tbaa !98
  %31 = load ptr, ptr %30, align 8, !tbaa !13
  store ptr %31, ptr %12, align 8, !tbaa !13
  call void @llvm.lifetime.start.p0(i64 4, ptr %13) #3
  %32 = load ptr, ptr %12, align 8, !tbaa !13
  %33 = getelementptr inbounds i8, ptr %32, i64 0
  %34 = load i8, ptr %33, align 1, !tbaa !84
  %35 = zext i8 %34 to i32
  %36 = shl i32 %35, 8
  %37 = load ptr, ptr %12, align 8, !tbaa !13
  %38 = getelementptr inbounds i8, ptr %37, i64 1
  %39 = load i8, ptr %38, align 1, !tbaa !84
  %40 = zext i8 %39 to i32
  %41 = or i32 %36, %40
  store i32 %41, ptr %13, align 4, !tbaa !3
  %42 = load ptr, ptr %7, align 8, !tbaa !15
  %43 = load i32, ptr %8, align 4, !tbaa !3
  %44 = call i32 @BIO_indent(ptr noundef %42, i32 noundef %43, i32 noundef 80)
  %45 = load ptr, ptr %7, align 8, !tbaa !15
  %46 = load i32, ptr %13, align 4, !tbaa !3
  %47 = call ptr @do_ssl_trace_str(i32 noundef %46, ptr noundef @ssl_sigalg_tbl, i64 noundef 34)
  %48 = load i32, ptr %13, align 4, !tbaa !3
  %49 = call i32 (ptr, ptr, ...) @BIO_printf(ptr noundef %45, ptr noundef @.str.516, ptr noundef %47, i32 noundef %48)
  %50 = load ptr, ptr %10, align 8, !tbaa !98
  %51 = load ptr, ptr %50, align 8, !tbaa !13
  %52 = getelementptr inbounds i8, ptr %51, i64 2
  store ptr %52, ptr %50, align 8, !tbaa !13
  %53 = load ptr, ptr %11, align 8, !tbaa !100
  %54 = load i64, ptr %53, align 8, !tbaa !9
  %55 = sub i64 %54, 2
  store i64 %55, ptr %53, align 8, !tbaa !9
  call void @llvm.lifetime.end.p0(i64 4, ptr %13) #3
  call void @llvm.lifetime.end.p0(i64 8, ptr %12) #3
  br label %56

56:                                               ; preds = %29, %18
  %57 = load ptr, ptr %7, align 8, !tbaa !15
  %58 = load i32, ptr %8, align 4, !tbaa !3
  %59 = load ptr, ptr %10, align 8, !tbaa !98
  %60 = load ptr, ptr %11, align 8, !tbaa !100
  %61 = call i32 @ssl_print_hexbuf(ptr noundef %57, i32 noundef %58, ptr noundef @.str.517, i64 noundef 2, ptr noundef %59, ptr noundef %60)
  store i32 %61, ptr %6, align 4
  br label %62

62:                                               ; preds = %56, %17
  %63 = load i32, ptr %6, align 4
  ret i32 %63
}