; Function Attrs: nounwind uwtable
define internal fastcc range(i32 0, 2) i32 @ssl_print_signature(ptr noundef %0, ptr noundef nonnull readonly captures(none) %1, ptr noundef nonnull captures(none) %2, ptr noundef nonnull captures(none) %3) unnamed_addr #0 {
  %5 = load i64, ptr %3, align 8, !tbaa !84
  %6 = icmp ult i64 %5, 2
  br i1 %6, label %ssl_print_hexbuf.exit, label %7

7:                                                ; preds = %4
  %8 = getelementptr inbounds nuw i8, ptr %1, i64 24
  %9 = load ptr, ptr %8, align 8, !tbaa !15
  %10 = getelementptr inbounds nuw i8, ptr %9, i64 216
  %11 = load ptr, ptr %10, align 8, !tbaa !70
  %12 = getelementptr inbounds nuw i8, ptr %11, i64 80
  %13 = load i32, ptr %12, align 8, !tbaa !73
  %14 = and i32 %13, 2
  %.not = icmp eq i32 %14, 0
  %.pre = load ptr, ptr %2, align 8, !tbaa !83
  br i1 %.not, label %.thread, label %15

15:                                               ; preds = %7
  %16 = load i8, ptr %.pre, align 1, !tbaa !75
  %17 = zext i8 %16 to i32
  %18 = shl nuw nsw i32 %17, 8
  %19 = getelementptr inbounds nuw i8, ptr %.pre, i64 1
  %20 = load i8, ptr %19, align 1, !tbaa !75
  %21 = zext i8 %20 to i32
  %22 = or disjoint i32 %18, %21
  %23 = tail call i32 @BIO_indent(ptr noundef %0, i32 noundef 6, i32 noundef 80) #3
  br label %24

24:                                               ; preds = %30, %15
  %.011.i = phi i64 [ 0, %15 ], [ %31, %30 ]
  %.0810.i = phi ptr [ @ssl_sigalg_tbl, %15 ], [ %32, %30 ]
  %25 = load i32, ptr %.0810.i, align 8, !tbaa !78
  %26 = icmp eq i32 %25, %22
  br i1 %26, label %27, label %30

27:                                               ; preds = %24
  %28 = getelementptr inbounds nuw i8, ptr %.0810.i, i64 8
  %29 = load ptr, ptr %28, align 8, !tbaa !80
  br label %.loopexit

30:                                               ; preds = %24
  %31 = add nuw nsw i64 %.011.i, 1
  %32 = getelementptr inbounds nuw i8, ptr %.0810.i, i64 16
  %exitcond.not.i = icmp eq i64 %31, 34
  br i1 %exitcond.not.i, label %.loopexit, label %24, !llvm.loop !81

.loopexit:                                        ; preds = %30, %27
  %.07.i = phi ptr [ %29, %27 ], [ @.str.15, %30 ]
  %33 = tail call i32 (ptr, ptr, ...) @BIO_printf(ptr noundef %0, ptr noundef nonnull @.str.516, ptr noundef %.07.i, i32 noundef %22) #3
  %34 = load ptr, ptr %2, align 8, !tbaa !83
  %35 = getelementptr inbounds nuw i8, ptr %34, i64 2
  store ptr %35, ptr %2, align 8, !tbaa !83
  %36 = load i64, ptr %3, align 8, !tbaa !84
  %37 = add i64 %36, -2
  store i64 %37, ptr %3, align 8, !tbaa !84
  %38 = icmp ult i64 %37, 2
  br i1 %38, label %ssl_print_hexbuf.exit, label %.thread

.thread:                                          ; preds = %7, %.loopexit
  %39 = phi i64 [ %37, %.loopexit ], [ %5, %7 ]
  %40 = phi ptr [ %35, %.loopexit ], [ %.pre, %7 ]
  %41 = load i8, ptr %40, align 1, !tbaa !75
  %42 = zext i8 %41 to i64
  %43 = shl nuw nsw i64 %42, 8
  %44 = getelementptr inbounds nuw i8, ptr %40, i64 1
  %45 = load i8, ptr %44, align 1, !tbaa !75
  %46 = zext i8 %45 to i64
  %47 = or disjoint i64 %43, %46
  %48 = add nuw nsw i64 %47, 2
  %49 = icmp ult i64 %39, %48
  br i1 %49, label %ssl_print_hexbuf.exit, label %50

50:                                               ; preds = %.thread
  %51 = getelementptr inbounds nuw i8, ptr %40, i64 2
  %52 = tail call i32 @BIO_indent(ptr noundef %0, i32 noundef range(i32 0, 15) 6, i32 noundef 80) #3
  %53 = trunc nuw nsw i64 %47 to i32
  %54 = tail call i32 (ptr, ptr, ...) @BIO_printf(ptr noundef %0, ptr noundef nonnull @.str.13, ptr noundef nonnull @.str.517, i32 noundef %53) #3
  %.not.i.i = icmp eq i64 %47, 0
  br i1 %.not.i.i, label %ssl_print_hex.exit.i, label %.lr.ph.i.i

.lr.ph.i.i:                                       ; preds = %50, %.lr.ph.i.i
  %.011.i.i = phi i64 [ %59, %.lr.ph.i.i ], [ 0, %50 ]
  %55 = getelementptr inbounds nuw i8, ptr %51, i64 %.011.i.i
  %56 = load i8, ptr %55, align 1, !tbaa !75
  %57 = zext i8 %56 to i32
  %58 = tail call i32 (ptr, ptr, ...) @BIO_printf(ptr noundef %0, ptr noundef nonnull @.str.14, i32 noundef %57) #3
  %59 = add nuw nsw i64 %.011.i.i, 1
  %exitcond.not.i.i = icmp eq i64 %59, %47
  br i1 %exitcond.not.i.i, label %ssl_print_hex.exit.i, label %.lr.ph.i.i, !llvm.loop !76

ssl_print_hex.exit.i:                             ; preds = %.lr.ph.i.i, %50
  %60 = tail call i32 @BIO_puts(ptr noundef %0, ptr noundef nonnull @.str.12) #3
  %61 = load ptr, ptr %2, align 8, !tbaa !83
  %62 = getelementptr inbounds nuw i8, ptr %61, i64 %48
  store ptr %62, ptr %2, align 8, !tbaa !83
  %63 = load i64, ptr %3, align 8, !tbaa !84
  %64 = sub i64 %63, %48
  store i64 %64, ptr %3, align 8, !tbaa !84
  br label %ssl_print_hexbuf.exit

ssl_print_hexbuf.exit:                            ; preds = %ssl_print_hex.exit.i, %.thread, %.loopexit, %4
  %.0 = phi i32 [ 0, %4 ], [ 1, %ssl_print_hex.exit.i ], [ 0, %.loopexit ], [ 0, %.thread ]
  ret i32 %.0
}